; Function Attrs: mustprogress nounwind uwtable
define internal void @_ZN12_GLOBAL__N_19InitUndefD0Ev(ptr noundef nonnull align 8 dereferenceable(264) %0) unnamed_addr #0 align 2 {
  store ptr getelementptr inbounds inrange(-16, 176) (i8, ptr @_ZTVN12_GLOBAL__N_19InitUndefE, i64 16), ptr %0, align 8
  %2 = getelementptr inbounds nuw i8, ptr %0, i64 184
  %3 = tail call noundef i64 @_ZNK4llvm15SmallVectorBaseIjE4sizeEv(ptr noundef nonnull align 8 dereferenceable(16) %2) #12
  %4 = load ptr, ptr %2, align 8
  %5 = getelementptr inbounds i8, ptr %0, i64 200
  %6 = icmp eq ptr %4, %5
  br i1 %6, label %_ZN4llvm11SmallVectorIPNS_12MachineInstrELj8EED2Ev.exit.i, label %7

7:                                                ; preds = %1
  tail call void @free(ptr noundef %4) #12
  br label %_ZN4llvm11SmallVectorIPNS_12MachineInstrELj8EED2Ev.exit.i

_ZN4llvm11SmallVectorIPNS_12MachineInstrELj8EED2Ev.exit.i: ; preds = %7, %1
  %8 = getelementptr inbounds nuw i8, ptr %0, i64 88
  %9 = getelementptr inbounds i8, ptr %0, i64 136
  %10 = getelementptr inbounds i8, ptr %0, i64 152
  %11 = load ptr, ptr %10, align 8
  tail call void @_ZNSt8_Rb_treeIN4llvm8RegisterES1_St9_IdentityIS1_ESt4lessIS1_ESaIS1_EE8_M_eraseEPSt13_Rb_tree_nodeIS1_E(ptr noundef nonnull align 8 dereferenceable(48) %9, ptr noundef %11)
  %12 = tail call noundef i64 @_ZNK4llvm15SmallVectorBaseIjE4sizeEv(ptr noundef nonnull align 8 dereferenceable(16) %8) #12
  %13 = load ptr, ptr %8, align 8
  %14 = getelementptr inbounds i8, ptr %0, i64 104
  %15 = icmp eq ptr %13, %14
  br i1 %15, label %_ZN12_GLOBAL__N_19InitUndefD2Ev.exit, label %16

16:                                               ; preds = %_ZN4llvm11SmallVectorIPNS_12MachineInstrELj8EED2Ev.exit.i
  tail call void @free(ptr noundef %13) #12
  br label %_ZN12_GLOBAL__N_19InitUndefD2Ev.exit

_ZN12_GLOBAL__N_19InitUndefD2Ev.exit:             ; preds = %_ZN4llvm11SmallVectorIPNS_12MachineInstrELj8EED2Ev.exit.i, %16
  tail call void @_ZN4llvm4PassD2Ev(ptr noundef nonnull align 8 dereferenceable(28) %0) #12
  tail call void @_ZdlPvm(ptr noundef nonnull %0, i64 noundef 264) #15
  ret void
}